target datalayout = "e-m:e-p270:32:32-p271:32:32-p272:64:64-i64:64-i128:128-f80:128-n8:16:32:64-S128"
target triple = "x86_64-pc-linux-gnu"

%struct.AVFilterLink = type { ptr, ptr, ptr, ptr, i32, i32, i32, i32, %struct.AVRational, i32, i32, i32, %struct.AVChannelLayout, %struct.AVRational, ptr, i32, %struct.AVFilterFormatsConfig, %struct.AVFilterFormatsConfig }
%struct.AVChannelLayout = type { i32, i32, %union.anon.1, ptr }
%union.anon.1 = type { i64 }
%struct.AVRational = type { i32, i32 }
%struct.AVFilterFormatsConfig = type { ptr, ptr, ptr, ptr, ptr }
%struct.AVFilterContext = type { ptr, ptr, ptr, ptr, ptr, i32, ptr, ptr, i32, ptr, ptr, i32, i32, ptr, ptr, ptr, ptr, i32, ptr, i32, i32 }
%struct.ScrollContext = type { ptr, float, float, float, float, float, float, [4 x i32], [4 x i32], ptr, i32, i32, [4 x i32], [4 x i32] }
%struct.AVPixFmtDescriptor = type { ptr, i8, i8, i8, i64, [4 x %struct.AVComponentDescriptor], ptr }
%struct.AVComponentDescriptor = type { i32, i32, i32, i32, i32 }

; Function Attrs: nounwind uwtable
define internal i32 @config_input(ptr noundef %0) #1 {
  %2 = alloca ptr, align 8
  %3 = alloca ptr, align 8
  %4 = alloca ptr, align 8
  store ptr %0, ptr %2, align 8, !tbaa !4
  call void @llvm.lifetime.start.p0(i64 8, ptr %3) #7
  %5 = load ptr, ptr %2, align 8, !tbaa !4
  %6 = getelementptr inbounds nuw %struct.AVFilterLink, ptr %5, i32 0, i32 2
  %7 = load ptr, ptr %6, align 8, !tbaa !11
  store ptr %7, ptr %3, align 8, !tbaa !23
  call void @llvm.lifetime.start.p0(i64 8, ptr %4) #7
  %8 = load ptr, ptr %3, align 8, !tbaa !23
  %9 = getelementptr inbounds nuw %struct.AVFilterContext, ptr %8, i32 0, i32 9
  %10 = load ptr, ptr %9, align 8, !tbaa !36
  store ptr %10, ptr %4, align 8, !tbaa !37
  %11 = load ptr, ptr %2, align 8, !tbaa !4
  %12 = getelementptr inbounds nuw %struct.AVFilterLink, ptr %11, i32 0, i32 5
  %13 = load i32, ptr %12, align 4, !tbaa !39
  %14 = call ptr @av_pix_fmt_desc_get(i32 noundef %13)
  %15 = load ptr, ptr %4, align 8, !tbaa !37
  %16 = getelementptr inbounds nuw %struct.ScrollContext, ptr %15, i32 0, i32 9
  store ptr %14, ptr %16, align 8, !tbaa !40
  %17 = load ptr, ptr %4, align 8, !tbaa !37
  %18 = getelementptr inbounds nuw %struct.ScrollContext, ptr %17, i32 0, i32 9
  %19 = load ptr, ptr %18, align 8, !tbaa !40
  %20 = getelementptr inbounds nuw %struct.AVPixFmtDescriptor, ptr %19, i32 0, i32 1
  %21 = load i8, ptr %20, align 8, !tbaa !44
  %22 = zext i8 %21 to i32
  %23 = load ptr, ptr %4, align 8, !tbaa !37
  %24 = getelementptr inbounds nuw %struct.ScrollContext, ptr %23, i32 0, i32 10
  store i32 %22, ptr %24, align 8, !tbaa !47
  %25 = load ptr, ptr %4, align 8, !tbaa !37
  %26 = getelementptr inbounds nuw %struct.ScrollContext, ptr %25, i32 0, i32 9
  %27 = load ptr, ptr %26, align 8, !tbaa !40
  %28 = getelementptr inbounds nuw %struct.AVPixFmtDescriptor, ptr %27, i32 0, i32 5
  %29 = getelementptr inbounds [4 x %struct.AVComponentDescriptor], ptr %28, i64 0, i64 0
  %30 = getelementptr inbounds nuw %struct.AVComponentDescriptor, ptr %29, i32 0, i32 4
  %31 = load i32, ptr %30, align 8, !tbaa !48
  %32 = add nsw i32 %31, 7
  %33 = ashr i32 %32, 3
  %34 = load ptr, ptr %4, align 8, !tbaa !37
  %35 = getelementptr inbounds nuw %struct.ScrollContext, ptr %34, i32 0, i32 11
  store i32 %33, ptr %35, align 4, !tbaa !50
  %36 = load ptr, ptr %4, align 8, !tbaa !37
  %37 = getelementptr inbounds nuw %struct.ScrollContext, ptr %36, i32 0, i32 9
  %38 = load ptr, ptr %37, align 8, !tbaa !40
  %39 = getelementptr inbounds nuw %struct.AVPixFmtDescriptor, ptr %38, i32 0, i32 3
  %40 = load i8, ptr %39, align 2, !tbaa !51
  %41 = call i1 @llvm.is.constant.i8(i8 %40)
  br i1 %41, label %55, label %42

42:                                               ; preds = %1
  %43 = load ptr, ptr %2, align 8, !tbaa !4
  %44 = getelementptr inbounds nuw %struct.AVFilterLink, ptr %43, i32 0, i32 7
  %45 = load i32, ptr %44, align 4, !tbaa !35
  %46 = sub nsw i32 0, %45
  %47 = load ptr, ptr %4, align 8, !tbaa !37
  %48 = getelementptr inbounds nuw %struct.ScrollContext, ptr %47, i32 0, i32 9
  %49 = load ptr, ptr %48, align 8, !tbaa !40
  %50 = getelementptr inbounds nuw %struct.AVPixFmtDescriptor, ptr %49, i32 0, i32 3
  %51 = load i8, ptr %50, align 2, !tbaa !51
  %52 = zext i8 %51 to i32
  %53 = ashr i32 %46, %52
  %54 = sub nsw i32 0, %53
  br label %75

55:                                               ; preds = %1
  %56 = load ptr, ptr %2, align 8, !tbaa !4
  %57 = getelementptr inbounds nuw %struct.AVFilterLink, ptr %56, i32 0, i32 7
  %58 = load i32, ptr %57, align 4, !tbaa !35
  %59 = load ptr, ptr %4, align 8, !tbaa !37
  %60 = getelementptr inbounds nuw %struct.ScrollContext, ptr %59, i32 0, i32 9
  %61 = load ptr, ptr %60, align 8, !tbaa !40
  %62 = getelementptr inbounds nuw %struct.AVPixFmtDescriptor, ptr %61, i32 0, i32 3
  %63 = load i8, ptr %62, align 2, !tbaa !51
  %64 = zext i8 %63 to i32
  %65 = shl i32 1, %64
  %66 = add nsw i32 %58, %65
  %67 = sub nsw i32 %66, 1
  %68 = load ptr, ptr %4, align 8, !tbaa !37
  %69 = getelementptr inbounds nuw %struct.ScrollContext, ptr %68, i32 0, i32 9
  %70 = load ptr, ptr %69, align 8, !tbaa !40
  %71 = getelementptr inbounds nuw %struct.AVPixFmtDescriptor, ptr %70, i32 0, i32 3
  %72 = load i8, ptr %71, align 2, !tbaa !51
  %73 = zext i8 %72 to i32
  %74 = ashr i32 %67, %73
  br label %75

75:                                               ; preds = %55, %42
  %76 = phi i32 [ %54, %42 ], [ %74, %55 ]
  %77 = load ptr, ptr %4, align 8, !tbaa !37
  %78 = getelementptr inbounds nuw %struct.ScrollContext, ptr %77, i32 0, i32 13
  %79 = getelementptr inbounds [4 x i32], ptr %78, i64 0, i64 2
  store i32 %76, ptr %79, align 8, !tbaa !52
  %80 = load ptr, ptr %4, align 8, !tbaa !37
  %81 = getelementptr inbounds nuw %struct.ScrollContext, ptr %80, i32 0, i32 13
  %82 = getelementptr inbounds [4 x i32], ptr %81, i64 0, i64 1
  store i32 %76, ptr %82, align 4, !tbaa !52
  %83 = load ptr, ptr %2, align 8, !tbaa !4
  %84 = getelementptr inbounds nuw %struct.AVFilterLink, ptr %83, i32 0, i32 7
  %85 = load i32, ptr %84, align 4, !tbaa !35
  %86 = load ptr, ptr %4, align 8, !tbaa !37
  %87 = getelementptr inbounds nuw %struct.ScrollContext, ptr %86, i32 0, i32 13
  %88 = getelementptr inbounds [4 x i32], ptr %87, i64 0, i64 3
  store i32 %85, ptr %88, align 4, !tbaa !52
  %89 = load ptr, ptr %4, align 8, !tbaa !37
  %90 = getelementptr inbounds nuw %struct.ScrollContext, ptr %89, i32 0, i32 13
  %91 = getelementptr inbounds [4 x i32], ptr %90, i64 0, i64 0
  store i32 %85, ptr %91, align 8, !tbaa !52
  %92 = load ptr, ptr %4, align 8, !tbaa !37
  %93 = getelementptr inbounds nuw %struct.ScrollContext, ptr %92, i32 0, i32 9
  %94 = load ptr, ptr %93, align 8, !tbaa !40
  %95 = getelementptr inbounds nuw %struct.AVPixFmtDescriptor, ptr %94, i32 0, i32 2
  %96 = load i8, ptr %95, align 1, !tbaa !53
  %97 = call i1 @llvm.is.constant.i8(i8 %96)
  br i1 %97, label %111, label %98

98:                                               ; preds = %75
  %99 = load ptr, ptr %2, align 8, !tbaa !4
  %100 = getelementptr inbounds nuw %struct.AVFilterLink, ptr %99, i32 0, i32 6
  %101 = load i32, ptr %100, align 8, !tbaa !34
  %102 = sub nsw i32 0, %101
  %103 = load ptr, ptr %4, align 8, !tbaa !37
  %104 = getelementptr inbounds nuw %struct.ScrollContext, ptr %103, i32 0, i32 9
  %105 = load ptr, ptr %104, align 8, !tbaa !40
  %106 = getelementptr inbounds nuw %struct.AVPixFmtDescriptor, ptr %105, i32 0, i32 2
  %107 = load i8, ptr %106, align 1, !tbaa !53
  %108 = zext i8 %107 to i32
  %109 = ashr i32 %102, %108
  %110 = sub nsw i32 0, %109
  br label %131

111:                                              ; preds = %75
  %112 = load ptr, ptr %2, align 8, !tbaa !4
  %113 = getelementptr inbounds nuw %struct.AVFilterLink, ptr %112, i32 0, i32 6
  %114 = load i32, ptr %113, align 8, !tbaa !34
  %115 = load ptr, ptr %4, align 8, !tbaa !37
  %116 = getelementptr inbounds nuw %struct.ScrollContext, ptr %115, i32 0, i32 9
  %117 = load ptr, ptr %116, align 8, !tbaa !40
  %118 = getelementptr inbounds nuw %struct.AVPixFmtDescriptor, ptr %117, i32 0, i32 2
  %119 = load i8, ptr %118, align 1, !tbaa !53
  %120 = zext i8 %119 to i32
  %121 = shl i32 1, %120
  %122 = add nsw i32 %114, %121
  %123 = sub nsw i32 %122, 1
  %124 = load ptr, ptr %4, align 8, !tbaa !37
  %125 = getelementptr inbounds nuw %struct.ScrollContext, ptr %124, i32 0, i32 9
  %126 = load ptr, ptr %125, align 8, !tbaa !40
  %127 = getelementptr inbounds nuw %struct.AVPixFmtDescriptor, ptr %126, i32 0, i32 2
  %128 = load i8, ptr %127, align 1, !tbaa !53
  %129 = zext i8 %128 to i32
  %130 = ashr i32 %123, %129
  br label %131

131:                                              ; preds = %111, %98
  %132 = phi i32 [ %110, %98 ], [ %130, %111 ]
  %133 = load ptr, ptr %4, align 8, !tbaa !37
  %134 = getelementptr inbounds nuw %struct.ScrollContext, ptr %133, i32 0, i32 12
  %135 = getelementptr inbounds [4 x i32], ptr %134, i64 0, i64 2
  store i32 %132, ptr %135, align 8, !tbaa !52
  %136 = load ptr, ptr %4, align 8, !tbaa !37
  %137 = getelementptr inbounds nuw %struct.ScrollContext, ptr %136, i32 0, i32 12
  %138 = getelementptr inbounds [4 x i32], ptr %137, i64 0, i64 1
  store i32 %132, ptr %138, align 4, !tbaa !52
  %139 = load ptr, ptr %2, align 8, !tbaa !4
  %140 = getelementptr inbounds nuw %struct.AVFilterLink, ptr %139, i32 0, i32 6
  %141 = load i32, ptr %140, align 8, !tbaa !34
  %142 = load ptr, ptr %4, align 8, !tbaa !37
  %143 = getelementptr inbounds nuw %struct.ScrollContext, ptr %142, i32 0, i32 12
  %144 = getelementptr inbounds [4 x i32], ptr %143, i64 0, i64 3
  store i32 %141, ptr %144, align 4, !tbaa !52
  %145 = load ptr, ptr %4, align 8, !tbaa !37
  %146 = getelementptr inbounds nuw %struct.ScrollContext, ptr %145, i32 0, i32 12
  %147 = getelementptr inbounds [4 x i32], ptr %146, i64 0, i64 0
  store i32 %141, ptr %147, align 8, !tbaa !52
  %148 = load ptr, ptr %4, align 8, !tbaa !37
  %149 = getelementptr inbounds nuw %struct.ScrollContext, ptr %148, i32 0, i32 5
  %150 = load float, ptr %149, align 8, !tbaa !54
  %151 = fsub nsz float 1.000000e+00, %150
  %152 = load ptr, ptr %2, align 8, !tbaa !4
  %153 = getelementptr inbounds nuw %struct.AVFilterLink, ptr %152, i32 0, i32 6
  %154 = load i32, ptr %153, align 8, !tbaa !34
  %155 = sitofp i32 %154 to float
  %156 = fmul nsz float %151, %155
  %157 = load ptr, ptr %4, align 8, !tbaa !37
  %158 = getelementptr inbounds nuw %struct.ScrollContext, ptr %157, i32 0, i32 3
  store float %156, ptr %158, align 8, !tbaa !55
  %159 = load ptr, ptr %4, align 8, !tbaa !37
  %160 = getelementptr inbounds nuw %struct.ScrollContext, ptr %159, i32 0, i32 6
  %161 = load float, ptr %160, align 4, !tbaa !56
  %162 = fsub nsz float 1.000000e+00, %161
  %163 = load ptr, ptr %2, align 8, !tbaa !4
  %164 = getelementptr inbounds nuw %struct.AVFilterLink, ptr %163, i32 0, i32 7
  %165 = load i32, ptr %164, align 4, !tbaa !35
  %166 = sitofp i32 %165 to float
  %167 = fmul nsz float %162, %166
  %168 = load ptr, ptr %4, align 8, !tbaa !37
  %169 = getelementptr inbounds nuw %struct.ScrollContext, ptr %168, i32 0, i32 4
  store float %167, ptr %169, align 4, !tbaa !57
  call void @llvm.lifetime.end.p0(i64 8, ptr %4) #7
  call void @llvm.lifetime.end.p0(i64 8, ptr %3) #7
  ret i32 0
}