; Function Attrs: nounwind uwtable
define internal noundef i32 @config_input(ptr noundef readonly captures(none) %0) #1 {
  %2 = getelementptr inbounds nuw i8, ptr %0, i64 16
  %3 = load ptr, ptr %2, align 8, !tbaa !9
  %4 = getelementptr inbounds nuw i8, ptr %3, i64 72
  %5 = load ptr, ptr %4, align 8, !tbaa !35
  %6 = getelementptr inbounds nuw i8, ptr %0, i64 36
  %7 = load i32, ptr %6, align 4, !tbaa !59
  %8 = tail call ptr @av_pix_fmt_desc_get(i32 noundef %7) #8
  %9 = getelementptr inbounds nuw i8, ptr %5, i64 64
  store ptr %8, ptr %9, align 8, !tbaa !48
  %10 = getelementptr inbounds nuw i8, ptr %8, i64 8
  %11 = load i8, ptr %10, align 8, !tbaa !60
  %12 = zext i8 %11 to i32
  %13 = getelementptr inbounds nuw i8, ptr %5, i64 72
  store i32 %12, ptr %13, align 8, !tbaa !61
  %14 = getelementptr inbounds nuw i8, ptr %8, i64 40
  %15 = load i32, ptr %14, align 8, !tbaa !62
  %16 = add nsw i32 %15, 7
  %17 = ashr i32 %16, 3
  %18 = getelementptr inbounds nuw i8, ptr %5, i64 76
  store i32 %17, ptr %18, align 4, !tbaa !53
  %19 = getelementptr inbounds nuw i8, ptr %0, i64 44
  %20 = load i32, ptr %19, align 4, !tbaa !34
  %21 = sub nsw i32 0, %20
  %22 = getelementptr inbounds nuw i8, ptr %8, i64 10
  %23 = load i8, ptr %22, align 2, !tbaa !49
  %24 = zext nneg i8 %23 to i32
  %25 = ashr i32 %21, %24
  %26 = sub nsw i32 0, %25
  %27 = getelementptr inbounds nuw i8, ptr %5, i64 96
  %28 = getelementptr inbounds nuw i8, ptr %5, i64 104
  store i32 %26, ptr %28, align 8, !tbaa !51
  %29 = getelementptr inbounds nuw i8, ptr %5, i64 100
  store i32 %26, ptr %29, align 4, !tbaa !51
  %30 = getelementptr inbounds nuw i8, ptr %0, i64 44
  %31 = load i32, ptr %30, align 4, !tbaa !34
  %32 = getelementptr inbounds nuw i8, ptr %5, i64 108
  store i32 %31, ptr %32, align 4, !tbaa !51
  store i32 %31, ptr %27, align 8, !tbaa !51
  %33 = getelementptr inbounds nuw i8, ptr %0, i64 40
  %34 = load i32, ptr %33, align 8, !tbaa !33
  %35 = sub nsw i32 0, %34
  %36 = getelementptr inbounds nuw i8, ptr %8, i64 9
  %37 = load i8, ptr %36, align 1, !tbaa !52
  %38 = zext nneg i8 %37 to i32
  %39 = ashr i32 %35, %38
  %40 = sub nsw i32 0, %39
  %41 = getelementptr inbounds nuw i8, ptr %5, i64 80
  %42 = getelementptr inbounds nuw i8, ptr %5, i64 88
  store i32 %40, ptr %42, align 8, !tbaa !51
  %43 = getelementptr inbounds nuw i8, ptr %5, i64 84
  store i32 %40, ptr %43, align 4, !tbaa !51
  %44 = getelementptr inbounds nuw i8, ptr %0, i64 40
  %45 = load i32, ptr %44, align 8, !tbaa !33
  %46 = getelementptr inbounds nuw i8, ptr %5, i64 92
  store i32 %45, ptr %46, align 4, !tbaa !51
  store i32 %45, ptr %41, align 8, !tbaa !51
  %47 = getelementptr inbounds nuw i8, ptr %5, i64 24
  %48 = load float, ptr %47, align 8, !tbaa !64
  %49 = fsub nsz float 1.000000e+00, %48
  %50 = load i32, ptr %44, align 8, !tbaa !33
  %51 = sitofp i32 %50 to float
  %52 = fmul nsz float %49, %51
  %53 = getelementptr inbounds nuw i8, ptr %5, i64 16
  store float %52, ptr %53, align 8, !tbaa !36
  %54 = getelementptr inbounds nuw i8, ptr %5, i64 28
  %55 = load float, ptr %54, align 4, !tbaa !65
  %56 = fsub nsz float 1.000000e+00, %55
  %57 = load i32, ptr %30, align 4, !tbaa !34
  %58 = sitofp i32 %57 to float
  %59 = fmul nsz float %56, %58
  %60 = getelementptr inbounds nuw i8, ptr %5, i64 20
  store float %59, ptr %60, align 4, !tbaa !46
  ret i32 0
}